; Function Attrs: mustprogress uwtable
define internal noundef i32 @_ZL9b_arshiftP9lua_State(ptr noundef %0) #0 {
  %2 = tail call noundef i32 @_Z18luaL_checkunsignedP9lua_Statei(ptr noundef %0, i32 noundef 1)
  %3 = tail call noundef i32 @_Z17luaL_checkintegerP9lua_Statei(ptr noundef %0, i32 noundef 2)
  %4 = icmp slt i32 %3, 0
  %.not = icmp sgt i32 %2, -1
  %or.cond = or i1 %.not, %4
  br i1 %or.cond, label %5, label %14

5:                                                ; preds = %1
  %6 = sub nsw i32 0, %3
  %7 = icmp sgt i32 %3, 0
  br i1 %7, label %8, label %11

8:                                                ; preds = %5
  %9 = icmp samesign ult i32 %6, -31
  %10 = lshr i32 %2, %3
  %spec.select = select i1 %9, i32 0, i32 %10
  br label %_ZL7b_shiftP9lua_Stateji.exit

11:                                               ; preds = %5
  %12 = icmp samesign ugt i32 %6, 31
  %13 = shl i32 %2, %6
  %.1.i = select i1 %12, i32 0, i32 %13
  br label %_ZL7b_shiftP9lua_Stateji.exit

14:                                               ; preds = %1
  %15 = icmp samesign ugt i32 %3, 31
  %16 = lshr i32 %2, %3
  %17 = lshr i32 -1, %3
  %18 = xor i32 %17, -1
  %19 = or i32 %16, %18
  %.013 = select i1 %15, i32 -1, i32 %19
  br label %_ZL7b_shiftP9lua_Stateji.exit

_ZL7b_shiftP9lua_Stateji.exit:                    ; preds = %11, %8, %14
  %.013.sink = phi i32 [ %.013, %14 ], [ %.1.i, %11 ], [ %spec.select, %8 ]
  tail call void @_Z16lua_pushunsignedP9lua_Statej(ptr noundef %0, i32 noundef %.013.sink)
  ret i32 1
}